
4.elf:     file format elf32-avr

Sections:
Idx Name          Size      VMA       LMA       File off  Algn
  0 .text         000000b2  00000000  00000000  00000054  2**1
                  CONTENTS, ALLOC, LOAD, READONLY, CODE
  1 .stab         00000348  00000000  00000000  00000108  2**2
                  CONTENTS, READONLY, DEBUGGING
  2 .stabstr      00000655  00000000  00000000  00000450  2**0
                  CONTENTS, READONLY, DEBUGGING
Disassembly of section .text:

00000000 <__vectors>:
   0:	12 c0       	rjmp	.+36     	; 0x26 <__ctors_end>
   2:	2c c0       	rjmp	.+88     	; 0x5c <__bad_interrupt>
   4:	2b c0       	rjmp	.+86     	; 0x5c <__bad_interrupt>
   6:	2b c0       	rjmp	.+86     	; 0x5e <__vector_3>
   8:	29 c0       	rjmp	.+82     	; 0x5c <__bad_interrupt>
   a:	28 c0       	rjmp	.+80     	; 0x5c <__bad_interrupt>
   c:	27 c0       	rjmp	.+78     	; 0x5c <__bad_interrupt>
   e:	26 c0       	rjmp	.+76     	; 0x5c <__bad_interrupt>
  10:	25 c0       	rjmp	.+74     	; 0x5c <__bad_interrupt>
  12:	24 c0       	rjmp	.+72     	; 0x5c <__bad_interrupt>
  14:	23 c0       	rjmp	.+70     	; 0x5c <__bad_interrupt>
  16:	22 c0       	rjmp	.+68     	; 0x5c <__bad_interrupt>
  18:	21 c0       	rjmp	.+66     	; 0x5c <__bad_interrupt>
  1a:	20 c0       	rjmp	.+64     	; 0x5c <__bad_interrupt>
  1c:	1f c0       	rjmp	.+62     	; 0x5c <__bad_interrupt>
  1e:	1e c0       	rjmp	.+60     	; 0x5c <__bad_interrupt>
  20:	1d c0       	rjmp	.+58     	; 0x5c <__bad_interrupt>
  22:	1c c0       	rjmp	.+56     	; 0x5c <__bad_interrupt>
  24:	1b c0       	rjmp	.+54     	; 0x5c <__bad_interrupt>

00000026 <__ctors_end>:
  26:	11 24       	eor	r1, r1
  28:	1f be       	out	0x3f, r1	; 63
  2a:	cf e5       	ldi	r28, 0x5F	; 95
  2c:	d4 e0       	ldi	r29, 0x04	; 4
  2e:	de bf       	out	0x3e, r29	; 62
  30:	cd bf       	out	0x3d, r28	; 61

00000032 <__do_copy_data>:
  32:	10 e0       	ldi	r17, 0x00	; 0
  34:	a0 e6       	ldi	r26, 0x60	; 96
  36:	b0 e0       	ldi	r27, 0x00	; 0
  38:	e2 eb       	ldi	r30, 0xB2	; 178
  3a:	f0 e0       	ldi	r31, 0x00	; 0
  3c:	02 c0       	rjmp	.+4      	; 0x42 <.do_copy_data_start>

0000003e <.do_copy_data_loop>:
  3e:	05 90       	lpm	r0, Z+
  40:	0d 92       	st	X+, r0

00000042 <.do_copy_data_start>:
  42:	a0 36       	cpi	r26, 0x60	; 96
  44:	b1 07       	cpc	r27, r17
  46:	d9 f7       	brne	.-10     	; 0x3e <.do_copy_data_loop>

00000048 <__do_clear_bss>:
  48:	10 e0       	ldi	r17, 0x00	; 0
  4a:	a0 e6       	ldi	r26, 0x60	; 96
  4c:	b0 e0       	ldi	r27, 0x00	; 0
  4e:	01 c0       	rjmp	.+2      	; 0x52 <.do_clear_bss_start>

00000050 <.do_clear_bss_loop>:
  50:	1d 92       	st	X+, r1

00000052 <.do_clear_bss_start>:
  52:	a0 36       	cpi	r26, 0x60	; 96
  54:	b1 07       	cpc	r27, r17
  56:	e1 f7       	brne	.-8      	; 0x50 <.do_clear_bss_loop>
  58:	12 d0       	rcall	.+36     	; 0x7e <main>
  5a:	29 c0       	rjmp	.+82     	; 0xae <_exit>

0000005c <__bad_interrupt>:
  5c:	d1 cf       	rjmp	.-94     	; 0x0 <__vectors>

0000005e <__vector_3>:

// Interrupt handler example for INT0

//

ISR(TIMER2_COMP_vect) {
  5e:	1f 92       	push	r1
  60:	0f 92       	push	r0
  62:	0f b6       	in	r0, 0x3f	; 63
  64:	0f 92       	push	r0
  66:	11 24       	eor	r1, r1
  68:	df 93       	push	r29
  6a:	cf 93       	push	r28
  6c:	cd b7       	in	r28, 0x3d	; 61
  6e:	de b7       	in	r29, 0x3e	; 62



}
  70:	cf 91       	pop	r28
  72:	df 91       	pop	r29
  74:	0f 90       	pop	r0
  76:	0f be       	out	0x3f, r0	; 63
  78:	0f 90       	pop	r0
  7a:	1f 90       	pop	r1
  7c:	18 95       	reti

0000007e <main>:
// ***********************************************************

// Main program

int main(void)
{
  7e:	df 93       	push	r29
  80:	cf 93       	push	r28
  82:	cd b7       	in	r28, 0x3d	; 61
  84:	de b7       	in	r29, 0x3e	; 62

	DDRB = 0xFF;
  86:	e7 e3       	ldi	r30, 0x37	; 55
  88:	f0 e0       	ldi	r31, 0x00	; 0
  8a:	8f ef       	ldi	r24, 0xFF	; 255
  8c:	80 83       	st	Z, r24
	TCNT2 =0;
  8e:	e4 e4       	ldi	r30, 0x44	; 68
  90:	f0 e0       	ldi	r31, 0x00	; 0
  92:	10 82       	st	Z, r1
	OCR2 = 125;
  94:	e3 e4       	ldi	r30, 0x43	; 67
  96:	f0 e0       	ldi	r31, 0x00	; 0
  98:	8d e7       	ldi	r24, 0x7D	; 125
  9a:	80 83       	st	Z, r24
	TCCR2 = (1<<CS21) | (1<<WGM20) | (1<<WGM21) |(1<<COM20) | (1<<COM21);
  9c:	e5 e4       	ldi	r30, 0x45	; 69
  9e:	f0 e0       	ldi	r31, 0x00	; 0
  a0:	8a e7       	ldi	r24, 0x7A	; 122
  a2:	80 83       	st	Z, r24
	TIMSK = (1<<OCIE2);
  a4:	e9 e5       	ldi	r30, 0x59	; 89
  a6:	f0 e0       	ldi	r31, 0x00	; 0
  a8:	80 e8       	ldi	r24, 0x80	; 128
  aa:	80 83       	st	Z, r24
  ac:	ff cf       	rjmp	.-2      	; 0xac <main+0x2e>

000000ae <_exit>:
  ae:	f8 94       	cli

000000b0 <__stop_program>:
  b0:	ff cf       	rjmp	.-2      	; 0xb0 <__stop_program>
