
2.elf:     file format elf32-avr

Sections:
Idx Name          Size      VMA       LMA       File off  Algn
  0 .text         000000ec  00000000  00000000  00000074  2**1
                  CONTENTS, ALLOC, LOAD, READONLY, CODE
  1 .bss          00000002  00800060  000000ec  00000160  2**0
                  ALLOC
  2 .stab         00000378  00000000  00000000  00000160  2**2
                  CONTENTS, READONLY, DEBUGGING
  3 .stabstr      00000661  00000000  00000000  000004d8  2**0
                  CONTENTS, READONLY, DEBUGGING
Disassembly of section .text:

00000000 <__vectors>:
   0:	12 c0       	rjmp	.+36     	; 0x26 <__ctors_end>
   2:	2d c0       	rjmp	.+90     	; 0x5e <__vector_1>
   4:	2b c0       	rjmp	.+86     	; 0x5c <__bad_interrupt>
   6:	2a c0       	rjmp	.+84     	; 0x5c <__bad_interrupt>
   8:	29 c0       	rjmp	.+82     	; 0x5c <__bad_interrupt>
   a:	28 c0       	rjmp	.+80     	; 0x5c <__bad_interrupt>
   c:	27 c0       	rjmp	.+78     	; 0x5c <__bad_interrupt>
   e:	26 c0       	rjmp	.+76     	; 0x5c <__bad_interrupt>
  10:	25 c0       	rjmp	.+74     	; 0x5c <__bad_interrupt>
  12:	24 c0       	rjmp	.+72     	; 0x5c <__bad_interrupt>
  14:	23 c0       	rjmp	.+70     	; 0x5c <__bad_interrupt>
  16:	22 c0       	rjmp	.+68     	; 0x5c <__bad_interrupt>
  18:	21 c0       	rjmp	.+66     	; 0x5c <__bad_interrupt>
  1a:	20 c0       	rjmp	.+64     	; 0x5c <__bad_interrupt>
  1c:	1f c0       	rjmp	.+62     	; 0x5c <__bad_interrupt>
  1e:	1e c0       	rjmp	.+60     	; 0x5c <__bad_interrupt>
  20:	1d c0       	rjmp	.+58     	; 0x5c <__bad_interrupt>
  22:	1c c0       	rjmp	.+56     	; 0x5c <__bad_interrupt>
  24:	1b c0       	rjmp	.+54     	; 0x5c <__bad_interrupt>

00000026 <__ctors_end>:
  26:	11 24       	eor	r1, r1
  28:	1f be       	out	0x3f, r1	; 63
  2a:	cf e5       	ldi	r28, 0x5F	; 95
  2c:	d4 e0       	ldi	r29, 0x04	; 4
  2e:	de bf       	out	0x3e, r29	; 62
  30:	cd bf       	out	0x3d, r28	; 61

00000032 <__do_copy_data>:
  32:	10 e0       	ldi	r17, 0x00	; 0
  34:	a0 e6       	ldi	r26, 0x60	; 96
  36:	b0 e0       	ldi	r27, 0x00	; 0
  38:	ec ee       	ldi	r30, 0xEC	; 236
  3a:	f0 e0       	ldi	r31, 0x00	; 0
  3c:	02 c0       	rjmp	.+4      	; 0x42 <.do_copy_data_start>

0000003e <.do_copy_data_loop>:
  3e:	05 90       	lpm	r0, Z+
  40:	0d 92       	st	X+, r0

00000042 <.do_copy_data_start>:
  42:	a0 36       	cpi	r26, 0x60	; 96
  44:	b1 07       	cpc	r27, r17
  46:	d9 f7       	brne	.-10     	; 0x3e <.do_copy_data_loop>

00000048 <__do_clear_bss>:
  48:	10 e0       	ldi	r17, 0x00	; 0
  4a:	a0 e6       	ldi	r26, 0x60	; 96
  4c:	b0 e0       	ldi	r27, 0x00	; 0
  4e:	01 c0       	rjmp	.+2      	; 0x52 <.do_clear_bss_start>

00000050 <.do_clear_bss_loop>:
  50:	1d 92       	st	X+, r1

00000052 <.do_clear_bss_start>:
  52:	a2 36       	cpi	r26, 0x62	; 98
  54:	b1 07       	cpc	r27, r17
  56:	e1 f7       	brne	.-8      	; 0x50 <.do_clear_bss_loop>
  58:	26 d0       	rcall	.+76     	; 0xa6 <main>
  5a:	46 c0       	rjmp	.+140    	; 0xe8 <_exit>

0000005c <__bad_interrupt>:
  5c:	d1 cf       	rjmp	.-94     	; 0x0 <__vectors>

0000005e <__vector_1>:
volatile int flag;

// Interrupt handler example for INT0


ISR(INT0_vect) {
  5e:	1f 92       	push	r1
  60:	0f 92       	push	r0
  62:	0f b6       	in	r0, 0x3f	; 63
  64:	0f 92       	push	r0
  66:	11 24       	eor	r1, r1
  68:	2f 93       	push	r18
  6a:	3f 93       	push	r19
  6c:	8f 93       	push	r24
  6e:	9f 93       	push	r25
  70:	df 93       	push	r29
  72:	cf 93       	push	r28
  74:	cd b7       	in	r28, 0x3d	; 61
  76:	de b7       	in	r29, 0x3e	; 62

        flag ^=1;
  78:	80 91 60 00 	lds	r24, 0x0060
  7c:	90 91 61 00 	lds	r25, 0x0061
  80:	21 e0       	ldi	r18, 0x01	; 1
  82:	30 e0       	ldi	r19, 0x00	; 0
  84:	82 27       	eor	r24, r18
  86:	93 27       	eor	r25, r19
  88:	90 93 61 00 	sts	0x0061, r25
  8c:	80 93 60 00 	sts	0x0060, r24

}
  90:	cf 91       	pop	r28
  92:	df 91       	pop	r29
  94:	9f 91       	pop	r25
  96:	8f 91       	pop	r24
  98:	3f 91       	pop	r19
  9a:	2f 91       	pop	r18
  9c:	0f 90       	pop	r0
  9e:	0f be       	out	0x3f, r0	; 63
  a0:	0f 90       	pop	r0
  a2:	1f 90       	pop	r1
  a4:	18 95       	reti

000000a6 <main>:

// Main program


int main(void)
{
  a6:	df 93       	push	r29
  a8:	cf 93       	push	r28
  aa:	cd b7       	in	r28, 0x3d	; 61
  ac:	de b7       	in	r29, 0x3e	; 62

		DDRD = 0x10;
  ae:	e1 e3       	ldi	r30, 0x31	; 49
  b0:	f0 e0       	ldi	r31, 0x00	; 0
  b2:	80 e1       	ldi	r24, 0x10	; 16
  b4:	80 83       	st	Z, r24
		PORTD = 0x04;
  b6:	e2 e3       	ldi	r30, 0x32	; 50
  b8:	f0 e0       	ldi	r31, 0x00	; 0
  ba:	84 e0       	ldi	r24, 0x04	; 4
  bc:	80 83       	st	Z, r24
      GICR  = (1<<INT0);
  be:	eb e5       	ldi	r30, 0x5B	; 91
  c0:	f0 e0       	ldi	r31, 0x00	; 0
  c2:	80 e4       	ldi	r24, 0x40	; 64
  c4:	80 83       	st	Z, r24
      sei();
  c6:	78 94       	sei

   while(1)
    {             // Infinite loop; define here the

        if(flag)
  c8:	80 91 60 00 	lds	r24, 0x0060
  cc:	90 91 61 00 	lds	r25, 0x0061
  d0:	00 97       	sbiw	r24, 0x00	; 0
  d2:	29 f0       	breq	.+10     	; 0xde <main+0x38>
      		PORTD = 0x04;
  d4:	e2 e3       	ldi	r30, 0x32	; 50
  d6:	f0 e0       	ldi	r31, 0x00	; 0
  d8:	84 e0       	ldi	r24, 0x04	; 4
  da:	80 83       	st	Z, r24
  dc:	f5 cf       	rjmp	.-22     	; 0xc8 <main+0x22>
        else
      		PORTD = 0x14;
  de:	e2 e3       	ldi	r30, 0x32	; 50
  e0:	f0 e0       	ldi	r31, 0x00	; 0
  e2:	84 e1       	ldi	r24, 0x14	; 20
  e4:	80 83       	st	Z, r24
  e6:	f0 cf       	rjmp	.-32     	; 0xc8 <main+0x22>

000000e8 <_exit>:
  e8:	f8 94       	cli

000000ea <__stop_program>:
  ea:	ff cf       	rjmp	.-2      	; 0xea <__stop_program>
